target datalayout = "e-m:e-p270:32:32-p271:32:32-p272:64:64-i64:64-i128:128-f80:128-n8:16:32:64-S128"
target triple = "x86_64-unknown-linux-gnu"

%"class.google::protobuf::internal::SymbolBase" = type { i8 }
%"class.absl::lts_20230802::log_internal::NullStream" = type { i8 }
%"class.google::protobuf::Reflection" = type { ptr, %"struct.google::protobuf::internal::ReflectionSchema", ptr, ptr, i32, %"class.absl::lts_20230802::once_flag", ptr }
%"struct.google::protobuf::internal::ReflectionSchema" = type { ptr, ptr, ptr, i32, i32, i32, i32, i32, i32, ptr, i32, i32, i32 }
%"class.absl::lts_20230802::once_flag" = type { %"struct.std::atomic.1" }
%"struct.std::atomic.1" = type { %"struct.std::__atomic_base.2" }
%"struct.std::__atomic_base.2" = type { i32 }
%"class.google::protobuf::Descriptor" = type { %"class.google::protobuf::internal::SymbolBase", i8, i16, i32, ptr, ptr, ptr, ptr, ptr, ptr, ptr, ptr, ptr, ptr, ptr, ptr, ptr, ptr, i32, i32, i32, i32, i32, i32, i32, i32 }
%"class.google::protobuf::FieldDescriptor" = type { %"class.google::protobuf::internal::SymbolBase", i8, i8, i8, i32, ptr, ptr, ptr, ptr, %union.anon.6, %union.anon.7, ptr, ptr, ptr, %union.anon.8 }
%union.anon.6 = type { ptr }
%union.anon.7 = type { ptr }
%union.anon.8 = type { i64 }
%"class.google::protobuf::OneofDescriptor" = type { %"class.google::protobuf::internal::SymbolBase", i32, ptr, ptr, ptr, ptr, ptr, ptr }

; Function Attrs: mustprogress nounwind uwtable
define linkonce_odr hidden noundef ptr @_ZN6google8protobuf8internal23GetConstPointerAtOffsetIjEEPKT_PKvj(ptr noundef %message, i32 noundef %offset) #4 comdat {
entry:
  %message.addr = alloca ptr, align 8
  %offset.addr = alloca i32, align 4
  store ptr %message, ptr %message.addr, align 8
  store i32 %offset, ptr %offset.addr, align 4
  %0 = load ptr, ptr %message.addr, align 8
  %1 = load i32, ptr %offset.addr, align 4
  %idx.ext = zext i32 %1 to i64
  %add.ptr = getelementptr inbounds i8, ptr %0, i64 %idx.ext
  ret ptr %add.ptr
}

; Function Attrs: mustprogress nounwind uwtable
define linkonce_odr hidden noundef i32 @_ZNK6google8protobuf15OneofDescriptor5indexEv(ptr noundef nonnull align 8 dereferenceable(56) %this) #4 comdat align 2 {
entry:
  %this.addr = alloca ptr, align 8
  store ptr %this, ptr %this.addr, align 8
  %this1 = load ptr, ptr %this.addr, align 8
  %containing_type_ = getelementptr inbounds %"class.google::protobuf::OneofDescriptor", ptr %this1, i32 0, i32 3
  %0 = load ptr, ptr %containing_type_, align 8
  %oneof_decls_ = getelementptr inbounds %"class.google::protobuf::Descriptor", ptr %0, i32 0, i32 11
  %1 = load ptr, ptr %oneof_decls_, align 8
  %sub.ptr.lhs.cast = ptrtoint ptr %this1 to i64
  %sub.ptr.rhs.cast = ptrtoint ptr %1 to i64
  %sub.ptr.sub = sub i64 %sub.ptr.lhs.cast, %sub.ptr.rhs.cast
  %sub.ptr.div = sdiv exact i64 %sub.ptr.sub, 56
  %conv = trunc i64 %sub.ptr.div to i32
  ret i32 %conv
}

; Function Attrs: mustprogress nounwind uwtable
define linkonce_odr hidden noundef nonnull align 4 dereferenceable(4) ptr @_ZN6google8protobuf8internal19GetConstRefAtOffsetIjEERKT_RKNS0_7MessageEj(ptr noundef nonnull align 8 dereferenceable(16) %message, i32 noundef %offset) #4 comdat {
entry:
  %message.addr = alloca ptr, align 8
  %offset.addr = alloca i32, align 4
  store ptr %message, ptr %message.addr, align 8
  store i32 %offset, ptr %offset.addr, align 4
  %0 = load ptr, ptr %message.addr, align 8
  %1 = load i32, ptr %offset.addr, align 4
  %call = call noundef ptr @_ZN6google8protobuf8internal23GetConstPointerAtOffsetIjEEPKT_PKvj(ptr noundef %0, i32 noundef %1)
  ret ptr %call
}

; Function Attrs: mustprogress nounwind uwtable
define linkonce_odr hidden noundef i32 @_ZNK6google8protobuf8internal16ReflectionSchema18GetOneofCaseOffsetEPKNS0_15OneofDescriptorE(ptr noundef nonnull align 8 dereferenceable(72) %this, ptr noundef %oneof_descriptor) #4 comdat align 2 {
entry:
  %this.addr = alloca ptr, align 8
  %oneof_descriptor.addr = alloca ptr, align 8
  store ptr %this, ptr %this.addr, align 8
  store ptr %oneof_descriptor, ptr %oneof_descriptor.addr, align 8
  %this1 = load ptr, ptr %this.addr, align 8
  %oneof_case_offset_ = getelementptr inbounds %"struct.google::protobuf::internal::ReflectionSchema", ptr %this1, i32 0, i32 6
  %0 = load i32, ptr %oneof_case_offset_, align 4
  %1 = load ptr, ptr %oneof_descriptor.addr, align 8
  %call = call noundef i32 @_ZNK6google8protobuf15OneofDescriptor5indexEv(ptr noundef nonnull align 8 dereferenceable(56) %1)
  %conv = sext i32 %call to i64
  %mul = mul i64 %conv, 4
  %conv2 = trunc i64 %mul to i32
  %add = add i32 %0, %conv2
  ret i32 %add
}

; Function Attrs: mustprogress nounwind uwtable
define linkonce_odr hidden noundef nonnull align 1 dereferenceable(1) ptr @_ZN4absl12lts_2023080212log_internal10NullStream14InternalStreamEv(ptr noundef nonnull align 1 dereferenceable(1) %this) #4 comdat align 2 {
entry:
  %this.addr = alloca ptr, align 8
  store ptr %this, ptr %this.addr, align 8
  %this1 = load ptr, ptr %this.addr, align 8
  ret ptr %this1
}

; Function Attrs: mustprogress nounwind uwtable
define linkonce_odr hidden noundef i32 @_ZNK6google8protobuf15OneofDescriptor11field_countEv(ptr noundef nonnull align 8 dereferenceable(56) %this) #4 comdat align 2 {
entry:
  %this.addr = alloca ptr, align 8
  store ptr %this, ptr %this.addr, align 8
  %this1 = load ptr, ptr %this.addr, align 8
  %field_count_ = getelementptr inbounds %"class.google::protobuf::OneofDescriptor", ptr %this1, i32 0, i32 1
  %0 = load i32, ptr %field_count_, align 4
  ret i32 %0
}

; Function Attrs: mustprogress uwtable
define noundef i32 @_ZNK6google8protobuf10Reflection12GetOneofCaseERKNS0_7MessageEPKNS0_15OneofDescriptorE(ptr noundef nonnull align 8 dereferenceable(112) %this, ptr noundef nonnull align 8 dereferenceable(16) %message, ptr noundef %oneof_descriptor) #5 align 2 {
entry:
  %this.addr = alloca ptr, align 8
  %message.addr = alloca ptr, align 8
  %oneof_descriptor.addr = alloca ptr, align 8
  store ptr %this, ptr %this.addr, align 8
  store ptr %message, ptr %message.addr, align 8
  store ptr %oneof_descriptor, ptr %oneof_descriptor.addr, align 8
  %this1 = load ptr, ptr %this.addr, align 8
  %0 = load ptr, ptr %message.addr, align 8
  %schema_ = getelementptr inbounds %"class.google::protobuf::Reflection", ptr %this1, i32 0, i32 1
  %1 = load ptr, ptr %oneof_descriptor.addr, align 8
  %call = call noundef i32 @_ZNK6google8protobuf8internal16ReflectionSchema18GetOneofCaseOffsetEPKNS0_15OneofDescriptorE(ptr noundef nonnull align 8 dereferenceable(72) %schema_, ptr noundef %1)
  %call2 = call noundef nonnull align 4 dereferenceable(4) ptr @_ZN6google8protobuf8internal19GetConstRefAtOffsetIjEERKT_RKNS0_7MessageEj(ptr noundef nonnull align 8 dereferenceable(16) %0, i32 noundef %call)
  %2 = load i32, ptr %call2, align 4
  ret i32 %2
}

; Function Attrs: mustprogress nounwind uwtable
define linkonce_odr hidden noundef ptr @_ZNK6google8protobuf15OneofDescriptor5fieldEi(ptr noundef nonnull align 8 dereferenceable(56) %this, i32 noundef %index) #4 comdat align 2 {
entry:
  %this.addr = alloca ptr, align 8
  %index.addr = alloca i32, align 4
  %ref.tmp = alloca %"class.absl::lts_20230802::log_internal::NullStream", align 1
  %ref.tmp4 = alloca %"class.absl::lts_20230802::log_internal::NullStream", align 1
  store ptr %this, ptr %this.addr, align 8
  store i32 %index, ptr %index.addr, align 4
  %this1 = load ptr, ptr %this.addr, align 8
  br label %while.cond

while.cond:                                       ; preds = %while.body, %entry
  br i1 false, label %while.body, label %while.end

while.body:                                       ; preds = %while.cond
  %call = call noundef nonnull align 1 dereferenceable(1) ptr @_ZN4absl12lts_2023080212log_internal10NullStream14InternalStreamEv(ptr noundef nonnull align 1 dereferenceable(1) %ref.tmp)
  br label %while.cond, !llvm.loop !48

while.end:                                        ; preds = %while.cond
  br label %while.cond2

while.cond2:                                      ; preds = %while.body3, %while.end
  br i1 false, label %while.body3, label %while.end6

while.body3:                                      ; preds = %while.cond2
  %call5 = call noundef nonnull align 1 dereferenceable(1) ptr @_ZN4absl12lts_2023080212log_internal10NullStream14InternalStreamEv(ptr noundef nonnull align 1 dereferenceable(1) %ref.tmp4)
  br label %while.cond2, !llvm.loop !49

while.end6:                                       ; preds = %while.cond2
  %fields_ = getelementptr inbounds %"class.google::protobuf::OneofDescriptor", ptr %this1, i32 0, i32 7
  %0 = load ptr, ptr %fields_, align 8
  %1 = load i32, ptr %index.addr, align 4
  %idx.ext = sext i32 %1 to i64
  %add.ptr = getelementptr inbounds %"class.google::protobuf::FieldDescriptor", ptr %0, i64 %idx.ext
  ret ptr %add.ptr
}

; Function Attrs: mustprogress uwtable
define linkonce_odr hidden noundef zeroext i1 @_ZNK6google8protobuf15OneofDescriptor12is_syntheticEv(ptr noundef nonnull align 8 dereferenceable(56) %this) #5 comdat align 2 {
entry:
  %this.addr = alloca ptr, align 8
  store ptr %this, ptr %this.addr, align 8
  %this1 = load ptr, ptr %this.addr, align 8
  %call = call noundef i32 @_ZNK6google8protobuf15OneofDescriptor11field_countEv(ptr noundef nonnull align 8 dereferenceable(56) %this1)
  %cmp = icmp eq i32 %call, 1
  br i1 %cmp, label %land.rhs, label %land.end

land.rhs:                                         ; preds = %entry
  %call2 = call noundef ptr @_ZNK6google8protobuf15OneofDescriptor5fieldEi(ptr noundef nonnull align 8 dereferenceable(56) %this1, i32 noundef 0)
  %proto3_optional_ = getelementptr inbounds %"class.google::protobuf::FieldDescriptor", ptr %call2, i32 0, i32 1
  %bf.load = load i8, ptr %proto3_optional_, align 1
  %bf.lshr = lshr i8 %bf.load, 1
  %bf.clear = and i8 %bf.lshr, 1
  %bf.cast = trunc i8 %bf.clear to i1
  br label %land.end

land.end:                                         ; preds = %land.rhs, %entry
  %0 = phi i1 [ false, %entry ], [ %bf.cast, %land.rhs ]
  ret i1 %0
}

; Function Attrs: mustprogress uwtable
define noundef ptr @_ZNK6google8protobuf10Reflection23GetOneofFieldDescriptorERKNS0_7MessageEPKNS0_15OneofDescriptorE(ptr noundef nonnull align 8 dereferenceable(112) %this, ptr noundef nonnull align 8 dereferenceable(16) %message, ptr noundef %oneof_descriptor) #5 align 2 {
entry:
  %retval = alloca ptr, align 8
  %this.addr = alloca ptr, align 8
  %message.addr = alloca ptr, align 8
  %oneof_descriptor.addr = alloca ptr, align 8
  %field = alloca ptr, align 8
  %field_number = alloca i32, align 4
  store ptr %this, ptr %this.addr, align 8
  store ptr %message, ptr %message.addr, align 8
  store ptr %oneof_descriptor, ptr %oneof_descriptor.addr, align 8
  %this1 = load ptr, ptr %this.addr, align 8
  %0 = load ptr, ptr %oneof_descriptor.addr, align 8
  %call = call noundef zeroext i1 @_ZNK6google8protobuf15OneofDescriptor12is_syntheticEv(ptr noundef nonnull align 8 dereferenceable(56) %0)
  br i1 %call, label %if.then, label %if.end

if.then:                                          ; preds = %entry
  %1 = load ptr, ptr %oneof_descriptor.addr, align 8
  %call2 = call noundef ptr @_ZNK6google8protobuf15OneofDescriptor5fieldEi(ptr noundef nonnull align 8 dereferenceable(56) %1, i32 noundef 0)
  store ptr %call2, ptr %field, align 8
  %2 = load ptr, ptr %message.addr, align 8
  %3 = load ptr, ptr %field, align 8
  %call3 = call noundef zeroext i1 @_ZNK6google8protobuf10Reflection8HasFieldERKNS0_7MessageEPKNS0_15FieldDescriptorE(ptr noundef nonnull align 8 dereferenceable(112) %this1, ptr noundef nonnull align 8 dereferenceable(16) %2, ptr noundef %3)
  br i1 %call3, label %cond.true, label %cond.false

cond.true:                                        ; preds = %if.then
  %4 = load ptr, ptr %field, align 8
  br label %cond.end

cond.false:                                       ; preds = %if.then
  br label %cond.end

cond.end:                                         ; preds = %cond.false, %cond.true
  %cond = phi ptr [ %4, %cond.true ], [ null, %cond.false ]
  store ptr %cond, ptr %retval, align 8
  br label %return

if.end:                                           ; preds = %entry
  %5 = load ptr, ptr %message.addr, align 8
  %6 = load ptr, ptr %oneof_descriptor.addr, align 8
  %call4 = call noundef i32 @_ZNK6google8protobuf10Reflection12GetOneofCaseERKNS0_7MessageEPKNS0_15OneofDescriptorE(ptr noundef nonnull align 8 dereferenceable(112) %this1, ptr noundef nonnull align 8 dereferenceable(16) %5, ptr noundef %6)
  store i32 %call4, ptr %field_number, align 4
  %7 = load i32, ptr %field_number, align 4
  %cmp = icmp eq i32 %7, 0
  br i1 %cmp, label %if.then5, label %if.end6

if.then5:                                         ; preds = %if.end
  store ptr null, ptr %retval, align 8
  br label %return

if.end6:                                          ; preds = %if.end
  %descriptor_ = getelementptr inbounds %"class.google::protobuf::Reflection", ptr %this1, i32 0, i32 0
  %8 = load ptr, ptr %descriptor_, align 8
  %9 = load i32, ptr %field_number, align 4
  %call7 = call noundef ptr @_ZNK6google8protobuf10Descriptor17FindFieldByNumberEi(ptr noundef nonnull align 8 dereferenceable(152) %8, i32 noundef %9)
  store ptr %call7, ptr %retval, align 8
  br label %return

return:                                           ; preds = %if.end6, %if.then5, %cond.end
  %10 = load ptr, ptr %retval, align 8
  ret ptr %10
}