; Function Attrs: mustprogress uwtable
define noundef ptr @_ZNK6google8protobuf10Reflection23GetOneofFieldDescriptorERKNS0_7MessageEPKNS0_15OneofDescriptorE(ptr noundef nonnull align 8 dereferenceable(112) %this, ptr noundef nonnull align 8 dereferenceable(16) %message, ptr noundef %oneof_descriptor) local_unnamed_addr #4 align 2 {
entry:
  %field_count_.i.i = getelementptr inbounds i8, ptr %oneof_descriptor, i64 4
  %0 = load i32, ptr %field_count_.i.i, align 4
  %cmp.i = icmp eq i32 %0, 1
  br i1 %cmp.i, label %_ZNK6google8protobuf15OneofDescriptor12is_syntheticEv.exit, label %if.end

_ZNK6google8protobuf15OneofDescriptor12is_syntheticEv.exit: ; preds = %entry
  %fields_.i.i = getelementptr inbounds i8, ptr %oneof_descriptor, i64 48
  %1 = load ptr, ptr %fields_.i.i, align 8
  %proto3_optional_.i = getelementptr inbounds i8, ptr %1, i64 1
  %bf.load.i = load i8, ptr %proto3_optional_.i, align 1
  %2 = and i8 %bf.load.i, 2
  %bf.cast.i.not = icmp eq i8 %2, 0
  br i1 %bf.cast.i.not, label %if.end, label %if.then

if.then:                                          ; preds = %_ZNK6google8protobuf15OneofDescriptor12is_syntheticEv.exit
  %call3 = tail call noundef zeroext i1 @_ZNK6google8protobuf10Reflection8HasFieldERKNS0_7MessageEPKNS0_15FieldDescriptorE(ptr noundef nonnull align 8 dereferenceable(112) %this, ptr noundef nonnull align 8 dereferenceable(16) %message, ptr noundef nonnull %1)
  %cond = select i1 %call3, ptr %1, ptr null
  br label %return

if.end:                                           ; preds = %entry, %_ZNK6google8protobuf15OneofDescriptor12is_syntheticEv.exit
  %oneof_case_offset_.i.i = getelementptr inbounds i8, ptr %this, i64 44
  %3 = load i32, ptr %oneof_case_offset_.i.i, align 4
  %containing_type_.i.i.i = getelementptr inbounds i8, ptr %oneof_descriptor, i64 16
  %4 = load ptr, ptr %containing_type_.i.i.i, align 8
  %oneof_decls_.i.i.i = getelementptr inbounds i8, ptr %4, i64 64
  %5 = load ptr, ptr %oneof_decls_.i.i.i, align 8
  %sub.ptr.lhs.cast.i.i.i = ptrtoint ptr %oneof_descriptor to i64
  %sub.ptr.rhs.cast.i.i.i = ptrtoint ptr %5 to i64
  %sub.ptr.sub.i.i.i = sub i64 %sub.ptr.lhs.cast.i.i.i, %sub.ptr.rhs.cast.i.i.i
  %sub.ptr.div.i.i.i = sdiv exact i64 %sub.ptr.sub.i.i.i, 56
  %conv.i.i.i = trunc i64 %sub.ptr.div.i.i.i to i32
  %mul.i.i = shl i32 %conv.i.i.i, 2
  %add.i.i = add i32 %mul.i.i, %3
  %idx.ext.i.i.i = zext i32 %add.i.i to i64
  %add.ptr.i.i.i = getelementptr inbounds i8, ptr %message, i64 %idx.ext.i.i.i
  %6 = load i32, ptr %add.ptr.i.i.i, align 4
  %cmp = icmp eq i32 %6, 0
  br i1 %cmp, label %return, label %if.end6

if.end6:                                          ; preds = %if.end
  %7 = load ptr, ptr %this, align 8
  %call7 = tail call noundef ptr @_ZNK6google8protobuf10Descriptor17FindFieldByNumberEi(ptr noundef nonnull align 8 dereferenceable(152) %7, i32 noundef %6)
  br label %return

return:                                           ; preds = %if.end, %if.end6, %if.then
  %retval.0 = phi ptr [ %cond, %if.then ], [ %call7, %if.end6 ], [ null, %if.end ]
  ret ptr %retval.0
}